target datalayout = "e-m:e-p270:32:32-p271:32:32-p272:64:64-i64:64-i128:128-f80:128-n8:16:32:64-S128"
target triple = "x86_64-pc-linux-gnu"

%"class.llvm::StringRef" = type { ptr, i64 }
%"class.llvm::Pass.base" = type <{ ptr, ptr, ptr, i32 }>
%"struct.(anonymous namespace)::DebugifyFunctionPass" = type <{ %"class.llvm::FunctionPass.base", [4 x i8], %"class.llvm::StringRef", ptr, i32, [4 x i8] }>
%"class.llvm::FunctionPass.base" = type { %"class.llvm::Pass.base" }
%"class.llvm::Pass" = type <{ ptr, ptr, ptr, i32, [4 x i8] }>

@.str.16 = private unnamed_addr constant [1 x i8] zeroinitializer, align 1
@_ZTVN4llvm4PassE = external unnamed_addr constant { [19 x ptr] }, align 8
@_ZN12_GLOBAL__N_120DebugifyFunctionPass2IDE = internal global i8 0, align 1
@_ZTVN4llvm12FunctionPassE = external unnamed_addr constant { [20 x ptr] }, align 8

; Function Attrs: mustprogress nounwind uwtable
define linkonce_odr hidden void @_ZN4llvm4PassC2ENS_8PassKindERc(ptr noundef nonnull align 8 dereferenceable(28) %0, i32 noundef %1, ptr noundef nonnull align 1 dereferenceable(1) %2) unnamed_addr #1 comdat align 2 {
  %4 = alloca ptr, align 8
  %5 = alloca i32, align 4
  %6 = alloca ptr, align 8
  store ptr %0, ptr %4, align 8
  store i32 %1, ptr %5, align 4
  store ptr %2, ptr %6, align 8
  %7 = load ptr, ptr %4, align 8
  store ptr getelementptr inbounds inrange(-16, 136) ({ [19 x ptr] }, ptr @_ZTVN4llvm4PassE, i32 0, i32 0, i32 2), ptr %7, align 8
  %8 = getelementptr inbounds nuw %"class.llvm::Pass", ptr %7, i32 0, i32 1
  store ptr null, ptr %8, align 8
  %9 = getelementptr inbounds nuw %"class.llvm::Pass", ptr %7, i32 0, i32 2
  %10 = load ptr, ptr %6, align 8
  store ptr %10, ptr %9, align 8
  %11 = getelementptr inbounds nuw %"class.llvm::Pass", ptr %7, i32 0, i32 3
  %12 = load i32, ptr %5, align 4
  store i32 %12, ptr %11, align 8
  ret void
}

; Function Attrs: mustprogress nounwind uwtable
define linkonce_odr hidden void @_ZN4llvm12FunctionPassC2ERc(ptr noundef nonnull align 8 dereferenceable(28) %0, ptr noundef nonnull align 1 dereferenceable(1) %1) unnamed_addr #1 comdat align 2 {
  %3 = alloca ptr, align 8
  %4 = alloca ptr, align 8
  store ptr %0, ptr %3, align 8
  store ptr %1, ptr %4, align 8
  %5 = load ptr, ptr %3, align 8
  %6 = load ptr, ptr %4, align 8
  call void @_ZN4llvm4PassC2ENS_8PassKindERc(ptr noundef nonnull align 8 dereferenceable(28) %5, i32 noundef 2, ptr noundef nonnull align 1 dereferenceable(1) %6)
  store ptr getelementptr inbounds inrange(-16, 144) ({ [20 x ptr] }, ptr @_ZTVN4llvm12FunctionPassE, i32 0, i32 0, i32 2), ptr %5, align 8
  ret void
}

; Function Attrs: mustprogress nounwind uwtable
define linkonce_odr hidden noundef i64 @_ZNSt11char_traitsIcE6lengthEPKc(ptr noundef %0) #1 comdat align 2 {
  %2 = alloca ptr, align 8
  store ptr %0, ptr %2, align 8
  %3 = load ptr, ptr %2, align 8
  %4 = call i64 @strlen(ptr noundef %3) #2
  ret i64 %4
}

; Function Attrs: mustprogress nounwind uwtable
define internal void @_ZN12_GLOBAL__N_120DebugifyFunctionPassC2E12DebugifyModeN4llvm9StringRefEP16DebugInfoPerPass(ptr noundef nonnull align 8 dereferenceable(60) %0, i32 noundef %1, ptr %2, i64 %3, ptr noundef %4) unnamed_addr #1 align 2 {
  %6 = alloca %"class.llvm::StringRef", align 8
  %7 = alloca ptr, align 8
  %8 = alloca i32, align 4
  %9 = alloca ptr, align 8
  %10 = getelementptr inbounds nuw { ptr, i64 }, ptr %6, i32 0, i32 0
  store ptr %2, ptr %10, align 8
  %11 = getelementptr inbounds nuw { ptr, i64 }, ptr %6, i32 0, i32 1
  store i64 %3, ptr %11, align 8
  store ptr %0, ptr %7, align 8
  store i32 %1, ptr %8, align 4
  store ptr %4, ptr %9, align 8
  %12 = load ptr, ptr %7, align 8
  call void @_ZN4llvm12FunctionPassC2ERc(ptr noundef nonnull align 8 dereferenceable(28) %12, ptr noundef nonnull align 1 dereferenceable(1) @_ZN12_GLOBAL__N_120DebugifyFunctionPass2IDE)
  store ptr getelementptr inbounds inrange(-16, 144) ({ [20 x ptr] }, ptr @_ZTVN12_GLOBAL__N_120DebugifyFunctionPassE, i32 0, i32 0, i32 2), ptr %12, align 8
  %13 = getelementptr inbounds nuw %"struct.(anonymous namespace)::DebugifyFunctionPass", ptr %12, i32 0, i32 2
  call void @llvm.memcpy.p0.p0.i64(ptr align 8 %13, ptr align 8 %6, i64 16, i1 false)
  %14 = getelementptr inbounds nuw %"struct.(anonymous namespace)::DebugifyFunctionPass", ptr %12, i32 0, i32 3
  %15 = load ptr, ptr %9, align 8
  store ptr %15, ptr %14, align 8
  %16 = getelementptr inbounds nuw %"struct.(anonymous namespace)::DebugifyFunctionPass", ptr %12, i32 0, i32 4
  %17 = load i32, ptr %8, align 4
  store i32 %17, ptr %16, align 8
  ret void
}

; Function Attrs: mustprogress nounwind uwtable
define linkonce_odr hidden void @_ZN4llvm9StringRefC2EPKc(ptr noundef nonnull align 8 dereferenceable(16) %0, ptr noundef %1) unnamed_addr #1 comdat align 2 {
  %3 = alloca ptr, align 8
  %4 = alloca ptr, align 8
  store ptr %0, ptr %3, align 8
  store ptr %1, ptr %4, align 8
  %5 = load ptr, ptr %3, align 8
  %6 = getelementptr inbounds nuw %"class.llvm::StringRef", ptr %5, i32 0, i32 0
  %7 = load ptr, ptr %4, align 8
  store ptr %7, ptr %6, align 8
  %8 = getelementptr inbounds nuw %"class.llvm::StringRef", ptr %5, i32 0, i32 1
  %9 = load ptr, ptr %4, align 8
  %10 = icmp ne ptr %9, null
  br i1 %10, label %11, label %14

11:                                               ; preds = %2
  %12 = load ptr, ptr %4, align 8
  %13 = call noundef i64 @_ZNSt11char_traitsIcE6lengthEPKc(ptr noundef %12)
  br label %15

14:                                               ; preds = %2
  br label %15

15:                                               ; preds = %14, %11
  %16 = phi i64 [ %13, %11 ], [ 0, %14 ]
  store i64 %16, ptr %8, align 8
  ret void
}

; Function Attrs: mustprogress nounwind uwtable
define dso_local noundef ptr @_Z26createDebugifyFunctionPass12DebugifyModeN4llvm9StringRefEP16DebugInfoPerPass(i32 noundef %0, ptr %1, i64 %2, ptr noundef %3) #1 {
  %5 = alloca ptr, align 8
  %6 = alloca %"class.llvm::StringRef", align 8
  %7 = alloca i32, align 4
  %8 = alloca ptr, align 8
  %9 = alloca %"class.llvm::StringRef", align 8
  %10 = alloca %"class.llvm::StringRef", align 8
  %11 = getelementptr inbounds nuw { ptr, i64 }, ptr %6, i32 0, i32 0
  store ptr %1, ptr %11, align 8
  %12 = getelementptr inbounds nuw { ptr, i64 }, ptr %6, i32 0, i32 1
  store i64 %2, ptr %12, align 8
  store i32 %0, ptr %7, align 4
  store ptr %3, ptr %8, align 8
  %13 = load i32, ptr %7, align 4
  %14 = icmp eq i32 %13, 1
  br i1 %14, label %15, label %21

15:                                               ; preds = %4
  %16 = call noalias noundef nonnull ptr @_Znwm(i64 noundef 64) #18
  call void @_ZN4llvm9StringRefC2EPKc(ptr noundef nonnull align 8 dereferenceable(16) %9, ptr noundef @.str.16)
  %17 = getelementptr inbounds nuw { ptr, i64 }, ptr %9, i32 0, i32 0
  %18 = load ptr, ptr %17, align 8
  %19 = getelementptr inbounds nuw { ptr, i64 }, ptr %9, i32 0, i32 1
  %20 = load i64, ptr %19, align 8
  call void @_ZN12_GLOBAL__N_120DebugifyFunctionPassC2E12DebugifyModeN4llvm9StringRefEP16DebugInfoPerPass(ptr noundef nonnull align 8 dereferenceable(60) %16, i32 noundef 1, ptr %18, i64 %20, ptr noundef null)
  store ptr %16, ptr %5, align 8
  br label %29

21:                                               ; preds = %4
  %22 = call noalias noundef nonnull ptr @_Znwm(i64 noundef 64) #18
  %23 = load i32, ptr %7, align 4
  call void @llvm.memcpy.p0.p0.i64(ptr align 8 %10, ptr align 8 %6, i64 16, i1 false)
  %24 = load ptr, ptr %8, align 8
  %25 = getelementptr inbounds nuw { ptr, i64 }, ptr %10, i32 0, i32 0
  %26 = load ptr, ptr %25, align 8
  %27 = getelementptr inbounds nuw { ptr, i64 }, ptr %10, i32 0, i32 1
  %28 = load i64, ptr %27, align 8
  call void @_ZN12_GLOBAL__N_120DebugifyFunctionPassC2E12DebugifyModeN4llvm9StringRefEP16DebugInfoPerPass(ptr noundef nonnull align 8 dereferenceable(60) %22, i32 noundef %23, ptr %26, i64 %28, ptr noundef %24)
  store ptr %22, ptr %5, align 8
  br label %29

29:                                               ; preds = %21, %15
  %30 = load ptr, ptr %5, align 8
  ret ptr %30
}