; Function Attrs: mustprogress nounwind uwtable
define dso_local noalias noundef nonnull ptr @_Z26createDebugifyFunctionPass12DebugifyModeN4llvm9StringRefEP16DebugInfoPerPass(i32 noundef %0, ptr %1, i64 %2, ptr noundef %3) local_unnamed_addr #0 {
  %5 = icmp eq i32 %0, 1
  %6 = tail call noalias noundef nonnull dereferenceable(64) ptr @_Znwm(i64 noundef 64) #27
  %7 = getelementptr inbounds nuw i8, ptr %6, i64 8
  store ptr null, ptr %7, align 8
  %8 = getelementptr inbounds nuw i8, ptr %6, i64 16
  store ptr @_ZN12_GLOBAL__N_120DebugifyFunctionPass2IDE, ptr %8, align 8
  %9 = getelementptr inbounds nuw i8, ptr %6, i64 24
  store i32 2, ptr %9, align 8
  store ptr getelementptr inbounds nuw inrange(-16, 144) (i8, ptr @_ZTVN12_GLOBAL__N_120DebugifyFunctionPassE, i64 16), ptr %6, align 8
  %10 = getelementptr inbounds nuw i8, ptr %6, i64 32
  %.sroa.2.0..sroa_idx.i = getelementptr inbounds nuw i8, ptr %6, i64 40
  br i1 %5, label %11, label %13

11:                                               ; preds = %4
  store ptr @.str.16, ptr %10, align 8
  %12 = getelementptr inbounds nuw i8, ptr %6, i64 56
  tail call void @llvm.memset.p0.i64(ptr noundef nonnull align 8 dereferenceable(16) %.sroa.2.0..sroa_idx.i, i8 0, i64 16, i1 false)
  store i32 1, ptr %12, align 8
  br label %16

13:                                               ; preds = %4
  store ptr %1, ptr %10, align 8
  store i64 %2, ptr %.sroa.2.0..sroa_idx.i, align 8
  %14 = getelementptr inbounds nuw i8, ptr %6, i64 48
  store ptr %3, ptr %14, align 8
  %15 = getelementptr inbounds nuw i8, ptr %6, i64 56
  store i32 %0, ptr %15, align 8
  br label %16

16:                                               ; preds = %13, %11
  ret ptr %6
}